target datalayout = "e-m:e-p270:32:32-p271:32:32-p272:64:64-i64:64-i128:128-f80:128-n8:16:32:64-S128"
target triple = "x86_64-pc-linux-gnu"

%struct.expert_field = type { i32, i32 }
%struct.ieee80211_tagged_field_data = type { i32, ptr, i8, ptr, ptr }

@ei_ieee80211_tag_length = internal global %struct.expert_field zeroinitializer, align 4
@hf_ieee80211_ff_bf = internal global i32 0, align 4
@hf_ieee80211_tag_tspec_allocation_period = internal global i32 0, align 4
@hf_ieee80211_tag_tspec_min_allocation = internal global i32 0, align 4
@hf_ieee80211_tag_tspec_max_allocation = internal global i32 0, align 4
@hf_ieee80211_tag_tspec_min_duration = internal global i32 0, align 4
@hf_ieee80211_tag_tspec_num_of_constraints = internal global i32 0, align 4
@hf_ieee80211_tag_tspec_tsconst_start_time = internal global i32 0, align 4
@hf_ieee80211_tag_tspec_tsconst_duration = internal global i32 0, align 4
@hf_ieee80211_tag_tspec_tsconst_period = internal global i32 0, align 4
@hf_ieee80211_tag_tspec_tsconst_interferer_mac = internal global i32 0, align 4
@ett_bf_tree = internal global i32 0, align 4
@.str.10262 = private unnamed_addr constant [41 x i8] c"Tag Length %u wrong, must be at least 14\00", align 1

; Function Attrs: null_pointer_is_valid sspstrong uwtable
define internal i32 @add_ff_beamforming_ctrl(ptr noundef %0, ptr noundef %1, ptr noundef %2, i32 noundef %3, i1 noundef zeroext %4) #1 {
  %6 = alloca ptr, align 8
  %7 = alloca ptr, align 8
  %8 = alloca ptr, align 8
  %9 = alloca i32, align 4
  %10 = alloca i8, align 1
  %11 = alloca i16, align 2
  %12 = alloca i8, align 1
  %13 = alloca i8, align 1
  store ptr %0, ptr %6, align 8
  store ptr %1, ptr %7, align 8
  store ptr %2, ptr %8, align 8
  store i32 %3, ptr %9, align 4
  %14 = zext i1 %4 to i8
  store i8 %14, ptr %10, align 1
  call void @llvm.lifetime.start.p0(i64 2, ptr %11) #19
  %15 = load ptr, ptr %7, align 8
  %16 = load i32, ptr %9, align 4
  %17 = call zeroext i16 @tvb_get_letohs(ptr noundef %15, i32 noundef %16)
  store i16 %17, ptr %11, align 2
  call void @llvm.lifetime.start.p0(i64 1, ptr %12) #19
  %18 = load i16, ptr %11, align 2
  %19 = zext i16 %18 to i32
  %20 = and i32 %19, 2
  %21 = ashr i32 %20, 1
  %22 = icmp ne i32 %21, 0
  %23 = zext i1 %22 to i8
  store i8 %23, ptr %12, align 1
  call void @llvm.lifetime.start.p0(i64 1, ptr %13) #19
  %24 = load i16, ptr %11, align 2
  %25 = zext i16 %24 to i32
  %26 = and i32 %25, 4
  %27 = ashr i32 %26, 2
  %28 = icmp ne i32 %27, 0
  %29 = zext i1 %28 to i8
  store i8 %29, ptr %13, align 1
  %30 = load i8, ptr %12, align 1, !range !6, !noundef !7
  %31 = trunc i8 %30 to i1
  %32 = zext i1 %31 to i32
  %33 = icmp eq i32 %32, 1
  br i1 %33, label %34, label %49

34:                                               ; preds = %5
  %35 = load i8, ptr %13, align 1, !range !6, !noundef !7
  %36 = trunc i8 %35 to i1
  %37 = zext i1 %36 to i32
  %38 = icmp eq i32 %37, 1
  br i1 %38, label %39, label %49

39:                                               ; preds = %34
  %40 = load i8, ptr %10, align 1, !range !6, !noundef !7
  %41 = trunc i8 %40 to i1
  br i1 %41, label %42, label %49

42:                                               ; preds = %39
  %43 = load ptr, ptr %6, align 8
  %44 = load ptr, ptr %7, align 8
  %45 = load i32, ptr %9, align 4
  %46 = load i32, ptr @hf_ieee80211_ff_bf, align 4
  %47 = load i32, ptr @ett_bf_tree, align 4
  %48 = call ptr @proto_tree_add_bitmask_with_flags(ptr noundef %43, ptr noundef %44, i32 noundef %45, i32 noundef %46, i32 noundef %47, ptr noundef @add_ff_beamforming_ctrl.ieee80211_ff_beamforming_ctrl_grant, i32 noundef -2147483648, i32 noundef 1)
  br label %56

49:                                               ; preds = %39, %34, %5
  %50 = load ptr, ptr %6, align 8
  %51 = load ptr, ptr %7, align 8
  %52 = load i32, ptr %9, align 4
  %53 = load i32, ptr @hf_ieee80211_ff_bf, align 4
  %54 = load i32, ptr @ett_bf_tree, align 4
  %55 = call ptr @proto_tree_add_bitmask_with_flags(ptr noundef %50, ptr noundef %51, i32 noundef %52, i32 noundef %53, i32 noundef %54, ptr noundef @add_ff_beamforming_ctrl.ieee80211_ff_beamforming_ctrl, i32 noundef -2147483648, i32 noundef 1)
  br label %56

56:                                               ; preds = %49, %42
  call void @llvm.lifetime.end.p0(i64 1, ptr %13) #19
  call void @llvm.lifetime.end.p0(i64 1, ptr %12) #19
  call void @llvm.lifetime.end.p0(i64 2, ptr %11) #19
  ret i32 2
}

; Function Attrs: null_pointer_is_valid sspstrong uwtable
define internal i32 @ieee80211_tag_dmg_tspec(ptr noundef %0, ptr noundef %1, ptr noundef %2, ptr noundef %3) #1 {
  %5 = alloca i32, align 4
  %6 = alloca ptr, align 8
  %7 = alloca ptr, align 8
  %8 = alloca ptr, align 8
  %9 = alloca ptr, align 8
  %10 = alloca i32, align 4
  %11 = alloca ptr, align 8
  %12 = alloca i32, align 4
  %13 = alloca i8, align 1
  %14 = alloca i32, align 4
  %15 = alloca i32, align 4
  store ptr %0, ptr %6, align 8
  store ptr %1, ptr %7, align 8
  store ptr %2, ptr %8, align 8
  store ptr %3, ptr %9, align 8
  call void @llvm.lifetime.start.p0(i64 4, ptr %10) #19
  %16 = load ptr, ptr %6, align 8
  %17 = call i32 @tvb_reported_length(ptr noundef %16)
  store i32 %17, ptr %10, align 4
  call void @llvm.lifetime.start.p0(i64 8, ptr %11) #19
  %18 = load ptr, ptr %9, align 8
  store ptr %18, ptr %11, align 8
  call void @llvm.lifetime.start.p0(i64 4, ptr %12) #19
  store i32 0, ptr %12, align 4
  call void @llvm.lifetime.start.p0(i64 1, ptr %13) #19
  call void @llvm.lifetime.start.p0(i64 4, ptr %14) #19
  %19 = load i32, ptr %10, align 4
  %20 = icmp slt i32 %19, 14
  br i1 %20, label %21, label %30

21:                                               ; preds = %4
  %22 = load ptr, ptr %7, align 8
  %23 = load ptr, ptr %11, align 8
  %24 = getelementptr inbounds nuw %struct.ieee80211_tagged_field_data, ptr %23, i32 0, i32 4
  %25 = load ptr, ptr %24, align 8
  %26 = load i32, ptr %10, align 4
  %27 = call ptr (ptr, ptr, ptr, ptr, ...) @expert_add_info_format(ptr noundef %22, ptr noundef %25, ptr noundef @ei_ieee80211_tag_length, ptr noundef @.str.10262, i32 noundef %26)
  %28 = load ptr, ptr %6, align 8
  %29 = call i32 @tvb_captured_length(ptr noundef %28)
  store i32 %29, ptr %5, align 4
  store i32 1, ptr %15, align 4
  br label %132

30:                                               ; preds = %4
  %31 = load ptr, ptr %8, align 8
  %32 = load ptr, ptr %6, align 8
  %33 = load i32, ptr %12, align 4
  call void @proto_tree_add_bitmask_list(ptr noundef %31, ptr noundef %32, i32 noundef %33, i32 noundef 3, ptr noundef @ieee80211_tag_dmg_tspec.ieee80211_tag_tspec_flags, i32 noundef -2147483648)
  %34 = load i32, ptr %12, align 4
  %35 = add i32 %34, 3
  store i32 %35, ptr %12, align 4
  %36 = load ptr, ptr %11, align 8
  %37 = getelementptr inbounds nuw %struct.ieee80211_tagged_field_data, ptr %36, i32 0, i32 0
  %38 = load i32, ptr %37, align 8
  %39 = icmp eq i32 %38, 356
  br i1 %39, label %45, label %40

40:                                               ; preds = %30
  %41 = load ptr, ptr %11, align 8
  %42 = getelementptr inbounds nuw %struct.ieee80211_tagged_field_data, ptr %41, i32 0, i32 0
  %43 = load i32, ptr %42, align 8
  %44 = icmp eq i32 %43, 359
  br label %45

45:                                               ; preds = %40, %30
  %46 = phi i1 [ true, %30 ], [ %44, %40 ]
  %47 = zext i1 %46 to i8
  store i8 %47, ptr %13, align 1
  %48 = load ptr, ptr %8, align 8
  %49 = load ptr, ptr %6, align 8
  %50 = load ptr, ptr %7, align 8
  %51 = load i8, ptr %13, align 1, !range !6, !noundef !7
  %52 = trunc i8 %51 to i1
  %53 = call i32 @add_ff_beamforming_ctrl(ptr noundef %48, ptr noundef %49, ptr noundef %50, i32 noundef 2, i1 noundef zeroext %52)
  %54 = load i32, ptr %12, align 4
  %55 = add i32 %54, %53
  store i32 %55, ptr %12, align 4
  %56 = load ptr, ptr %8, align 8
  %57 = load i32, ptr @hf_ieee80211_tag_tspec_allocation_period, align 4
  %58 = load ptr, ptr %6, align 8
  %59 = load i32, ptr %12, align 4
  %60 = call ptr @proto_tree_add_item(ptr noundef %56, i32 noundef %57, ptr noundef %58, i32 noundef %59, i32 noundef 2, i32 noundef -2147483648)
  %61 = load i32, ptr %12, align 4
  %62 = add i32 %61, 2
  store i32 %62, ptr %12, align 4
  %63 = load ptr, ptr %8, align 8
  %64 = load i32, ptr @hf_ieee80211_tag_tspec_min_allocation, align 4
  %65 = load ptr, ptr %6, align 8
  %66 = load i32, ptr %12, align 4
  %67 = call ptr @proto_tree_add_item(ptr noundef %63, i32 noundef %64, ptr noundef %65, i32 noundef %66, i32 noundef 2, i32 noundef -2147483648)
  %68 = load i32, ptr %12, align 4
  %69 = add i32 %68, 2
  store i32 %69, ptr %12, align 4
  %70 = load ptr, ptr %8, align 8
  %71 = load i32, ptr @hf_ieee80211_tag_tspec_max_allocation, align 4
  %72 = load ptr, ptr %6, align 8
  %73 = load i32, ptr %12, align 4
  %74 = call ptr @proto_tree_add_item(ptr noundef %70, i32 noundef %71, ptr noundef %72, i32 noundef %73, i32 noundef 2, i32 noundef -2147483648)
  %75 = load i32, ptr %12, align 4
  %76 = add i32 %75, 2
  store i32 %76, ptr %12, align 4
  %77 = load ptr, ptr %8, align 8
  %78 = load i32, ptr @hf_ieee80211_tag_tspec_min_duration, align 4
  %79 = load ptr, ptr %6, align 8
  %80 = load i32, ptr %12, align 4
  %81 = call ptr @proto_tree_add_item(ptr noundef %77, i32 noundef %78, ptr noundef %79, i32 noundef %80, i32 noundef 2, i32 noundef -2147483648)
  %82 = load i32, ptr %12, align 4
  %83 = add i32 %82, 2
  store i32 %83, ptr %12, align 4
  %84 = load ptr, ptr %6, align 8
  %85 = load i32, ptr %12, align 4
  %86 = call zeroext i8 @tvb_get_uint8(ptr noundef %84, i32 noundef %85)
  %87 = zext i8 %86 to i32
  store i32 %87, ptr %14, align 4
  %88 = load ptr, ptr %8, align 8
  %89 = load i32, ptr @hf_ieee80211_tag_tspec_num_of_constraints, align 4
  %90 = load ptr, ptr %6, align 8
  %91 = load i32, ptr %12, align 4
  %92 = call ptr @proto_tree_add_item(ptr noundef %88, i32 noundef %89, ptr noundef %90, i32 noundef %91, i32 noundef 1, i32 noundef 0)
  %93 = load i32, ptr %12, align 4
  %94 = add i32 %93, 1
  store i32 %94, ptr %12, align 4
  br label %95

95:                                               ; preds = %98, %45
  %96 = load i32, ptr %14, align 4
  %97 = icmp sgt i32 %96, 0
  br i1 %97, label %98, label %129

98:                                               ; preds = %95
  %99 = load ptr, ptr %8, align 8
  %100 = load i32, ptr @hf_ieee80211_tag_tspec_tsconst_start_time, align 4
  %101 = load ptr, ptr %6, align 8
  %102 = load i32, ptr %12, align 4
  %103 = call ptr @proto_tree_add_item(ptr noundef %99, i32 noundef %100, ptr noundef %101, i32 noundef %102, i32 noundef 4, i32 noundef -2147483648)
  %104 = load i32, ptr %12, align 4
  %105 = add i32 %104, 4
  store i32 %105, ptr %12, align 4
  %106 = load ptr, ptr %8, align 8
  %107 = load i32, ptr @hf_ieee80211_tag_tspec_tsconst_duration, align 4
  %108 = load ptr, ptr %6, align 8
  %109 = load i32, ptr %12, align 4
  %110 = call ptr @proto_tree_add_item(ptr noundef %106, i32 noundef %107, ptr noundef %108, i32 noundef %109, i32 noundef 2, i32 noundef -2147483648)
  %111 = load i32, ptr %12, align 4
  %112 = add i32 %111, 2
  store i32 %112, ptr %12, align 4
  %113 = load ptr, ptr %8, align 8
  %114 = load i32, ptr @hf_ieee80211_tag_tspec_tsconst_period, align 4
  %115 = load ptr, ptr %6, align 8
  %116 = load i32, ptr %12, align 4
  %117 = call ptr @proto_tree_add_item(ptr noundef %113, i32 noundef %114, ptr noundef %115, i32 noundef %116, i32 noundef 2, i32 noundef -2147483648)
  %118 = load i32, ptr %12, align 4
  %119 = add i32 %118, 2
  store i32 %119, ptr %12, align 4
  %120 = load ptr, ptr %8, align 8
  %121 = load i32, ptr @hf_ieee80211_tag_tspec_tsconst_interferer_mac, align 4
  %122 = load ptr, ptr %6, align 8
  %123 = load i32, ptr %12, align 4
  %124 = call ptr @proto_tree_add_item(ptr noundef %120, i32 noundef %121, ptr noundef %122, i32 noundef %123, i32 noundef 2, i32 noundef 0)
  %125 = load i32, ptr %12, align 4
  %126 = add i32 %125, 6
  store i32 %126, ptr %12, align 4
  %127 = load i32, ptr %14, align 4
  %128 = add i32 %127, -1
  store i32 %128, ptr %14, align 4
  br label %95, !llvm.loop !68

129:                                              ; preds = %95
  %130 = load ptr, ptr %6, align 8
  %131 = call i32 @tvb_captured_length(ptr noundef %130)
  store i32 %131, ptr %5, align 4
  store i32 1, ptr %15, align 4
  br label %132

132:                                              ; preds = %129, %21
  call void @llvm.lifetime.end.p0(i64 4, ptr %14) #19
  call void @llvm.lifetime.end.p0(i64 1, ptr %13) #19
  call void @llvm.lifetime.end.p0(i64 4, ptr %12) #19
  call void @llvm.lifetime.end.p0(i64 8, ptr %11) #19
  call void @llvm.lifetime.end.p0(i64 4, ptr %10) #19
  %133 = load i32, ptr %5, align 4
  ret i32 %133
}