; Function Attrs: null_pointer_is_valid sspstrong uwtable
define internal i32 @ieee80211_tag_dmg_tspec(ptr noundef %0, ptr noundef %1, ptr noundef %2, ptr noundef readonly captures(none) %3) #2 {
  %5 = tail call i32 @tvb_reported_length(ptr noundef %0)
  %6 = icmp slt i32 %5, 14
  br i1 %6, label %7, label %11

7:                                                ; preds = %4
  %8 = getelementptr inbounds nuw i8, ptr %3, i64 32
  %9 = load ptr, ptr %8, align 8
  %10 = tail call ptr (ptr, ptr, ptr, ptr, ...) @expert_add_info_format(ptr noundef %1, ptr noundef %9, ptr noundef nonnull @ei_ieee80211_tag_length, ptr noundef nonnull @.str.10262, i32 noundef %5)
  br label %._crit_edge

11:                                               ; preds = %4
  tail call void @proto_tree_add_bitmask_list(ptr noundef %2, ptr noundef %0, i32 noundef 0, i32 noundef 3, ptr noundef nonnull @ieee80211_tag_dmg_tspec.ieee80211_tag_tspec_flags, i32 noundef -2147483648)
  %12 = load i32, ptr %3, align 8
  %13 = icmp eq i32 %12, 356
  %14 = icmp eq i32 %12, 359
  %spec.select = or i1 %13, %14
  %15 = tail call zeroext i16 @tvb_get_letohs(ptr noundef %0, i32 noundef 2)
  %16 = and i16 %15, 6
  %or.cond.i = icmp eq i16 %16, 6
  %brmerge.not.i = and i1 %spec.select, %or.cond.i
  %17 = load i32, ptr @hf_ieee80211_ff_bf, align 4
  %18 = load i32, ptr @ett_bf_tree, align 4
  %add_ff_beamforming_ctrl.ieee80211_ff_beamforming_ctrl_grant.add_ff_beamforming_ctrl.ieee80211_ff_beamforming_ctrl.i = select i1 %brmerge.not.i, ptr @add_ff_beamforming_ctrl.ieee80211_ff_beamforming_ctrl_grant, ptr @add_ff_beamforming_ctrl.ieee80211_ff_beamforming_ctrl
  %19 = tail call ptr @proto_tree_add_bitmask_with_flags(ptr noundef %2, ptr noundef %0, i32 noundef 2, i32 noundef %17, i32 noundef %18, ptr noundef nonnull %add_ff_beamforming_ctrl.ieee80211_ff_beamforming_ctrl_grant.add_ff_beamforming_ctrl.ieee80211_ff_beamforming_ctrl.i, i32 noundef -2147483648, i32 noundef 1)
  %20 = load i32, ptr @hf_ieee80211_tag_tspec_allocation_period, align 4
  %21 = tail call ptr @proto_tree_add_item(ptr noundef %2, i32 noundef %20, ptr noundef %0, i32 noundef 5, i32 noundef 2, i32 noundef -2147483648)
  %22 = load i32, ptr @hf_ieee80211_tag_tspec_min_allocation, align 4
  %23 = tail call ptr @proto_tree_add_item(ptr noundef %2, i32 noundef %22, ptr noundef %0, i32 noundef 7, i32 noundef 2, i32 noundef -2147483648)
  %24 = load i32, ptr @hf_ieee80211_tag_tspec_max_allocation, align 4
  %25 = tail call ptr @proto_tree_add_item(ptr noundef %2, i32 noundef %24, ptr noundef %0, i32 noundef 9, i32 noundef 2, i32 noundef -2147483648)
  %26 = load i32, ptr @hf_ieee80211_tag_tspec_min_duration, align 4
  %27 = tail call ptr @proto_tree_add_item(ptr noundef %2, i32 noundef %26, ptr noundef %0, i32 noundef 11, i32 noundef 2, i32 noundef -2147483648)
  %28 = tail call zeroext i8 @tvb_get_uint8(ptr noundef %0, i32 noundef 13)
  %29 = load i32, ptr @hf_ieee80211_tag_tspec_num_of_constraints, align 4
  %30 = tail call ptr @proto_tree_add_item(ptr noundef %2, i32 noundef %29, ptr noundef %0, i32 noundef 13, i32 noundef 1, i32 noundef 0)
  %.not = icmp eq i8 %28, 0
  br i1 %.not, label %._crit_edge, label %.lr.ph.preheader

.lr.ph.preheader:                                 ; preds = %11
  %31 = zext i8 %28 to i32
  br label %.lr.ph

.lr.ph:                                           ; preds = %.lr.ph.preheader, %.lr.ph
  %.064 = phi i32 [ %44, %.lr.ph ], [ %31, %.lr.ph.preheader ]
  %.06063 = phi i32 [ %43, %.lr.ph ], [ 14, %.lr.ph.preheader ]
  %32 = load i32, ptr @hf_ieee80211_tag_tspec_tsconst_start_time, align 4
  %33 = tail call ptr @proto_tree_add_item(ptr noundef %2, i32 noundef %32, ptr noundef %0, i32 noundef %.06063, i32 noundef 4, i32 noundef -2147483648)
  %34 = add nuw nsw i32 %.06063, 4
  %35 = load i32, ptr @hf_ieee80211_tag_tspec_tsconst_duration, align 4
  %36 = tail call ptr @proto_tree_add_item(ptr noundef %2, i32 noundef %35, ptr noundef %0, i32 noundef %34, i32 noundef 2, i32 noundef -2147483648)
  %37 = add nuw nsw i32 %.06063, 6
  %38 = load i32, ptr @hf_ieee80211_tag_tspec_tsconst_period, align 4
  %39 = tail call ptr @proto_tree_add_item(ptr noundef %2, i32 noundef %38, ptr noundef %0, i32 noundef %37, i32 noundef 2, i32 noundef -2147483648)
  %40 = add nuw nsw i32 %.06063, 8
  %41 = load i32, ptr @hf_ieee80211_tag_tspec_tsconst_interferer_mac, align 4
  %42 = tail call ptr @proto_tree_add_item(ptr noundef %2, i32 noundef %41, ptr noundef %0, i32 noundef %40, i32 noundef 2, i32 noundef 0)
  %43 = add nuw nsw i32 %.06063, 14
  %44 = add nsw i32 %.064, -1
  %45 = icmp samesign ugt i32 %.064, 1
  br i1 %45, label %.lr.ph, label %._crit_edge, !llvm.loop !153

._crit_edge:                                      ; preds = %.lr.ph, %11, %7
  %46 = tail call i32 @tvb_captured_length(ptr noundef %0)
  ret i32 %46
}